; Function Attrs: nofree norecurse nosync nounwind memory(readwrite, inaccessiblemem: none) uwtable
define i32 @Kit_GraphToTruth(ptr noundef readonly captures(none) %0) local_unnamed_addr #7 {
  %.val = load i32, ptr %0, align 8, !tbaa !14
  %.not = icmp eq i32 %.val, 0
  br i1 %.not, label %5, label %2

2:                                                ; preds = %1
  %3 = getelementptr i8, ptr %0, i64 24
  %.val50 = load i32, ptr %3, align 8
  %4 = and i32 %.val50, 1
  %sext49 = add nsw i32 %4, -1
  br label %61

5:                                                ; preds = %1
  %6 = getelementptr i8, ptr %0, i64 4
  %.val53 = load i32, ptr %6, align 4, !tbaa !3
  %7 = getelementptr i8, ptr %0, i64 24
  %.val54 = load i32, ptr %7, align 8
  %8 = lshr i32 %.val54, 1
  %9 = and i32 %8, 1073741823
  %.not63 = icmp ult i32 %9, %.val53
  br i1 %.not63, label %11, label %.preheader

.preheader:                                       ; preds = %5
  %.not76 = icmp eq i32 %.val53, 0
  br i1 %.not76, label %.critedge.preheader, label %.lr.ph

.lr.ph:                                           ; preds = %.preheader
  %10 = getelementptr i8, ptr %0, i64 16
  br label %21

11:                                               ; preds = %5
  %12 = zext nneg i32 %9 to i64
  %13 = getelementptr inbounds nuw [5 x i32], ptr @__const.Kit_GraphToTruth.uTruths, i64 0, i64 %12
  %14 = load i32, ptr %13, align 4, !tbaa !16
  %15 = and i32 %.val54, 1
  %sext77 = sub nsw i32 0, %15
  %spec.select = xor i32 %14, %sext77
  br label %61

.critedge.preheader:                              ; preds = %21, %.preheader
  %.lcssa = phi i32 [ 0, %.preheader ], [ %27, %21 ]
  %16 = getelementptr inbounds nuw i8, ptr %0, i64 8
  %17 = load i32, ptr %16, align 8, !tbaa !11
  %18 = icmp slt i32 %.lcssa, %17
  br i1 %18, label %.lr.ph66, label %.critedge2

.lr.ph66:                                         ; preds = %.critedge.preheader
  %19 = getelementptr i8, ptr %0, i64 16
  %20 = sext i32 %.lcssa to i64
  br label %.critedge

21:                                               ; preds = %.lr.ph, %21
  %indvars.iv = phi i64 [ 0, %.lr.ph ], [ %indvars.iv.next, %21 ]
  %.val55 = load ptr, ptr %10, align 8, !tbaa !13
  %22 = getelementptr inbounds nuw [5 x i32], ptr @__const.Kit_GraphToTruth.uTruths, i64 0, i64 %indvars.iv
  %23 = load i32, ptr %22, align 4, !tbaa !16
  %24 = zext i32 %23 to i64
  %25 = inttoptr i64 %24 to ptr
  %26 = getelementptr inbounds nuw %struct.Kit_Node_t_, ptr %.val55, i64 %indvars.iv, i32 2
  store ptr %25, ptr %26, align 8, !tbaa !15
  %indvars.iv.next = add nuw nsw i64 %indvars.iv, 1
  %27 = load i32, ptr %6, align 4, !tbaa !3
  %28 = sext i32 %27 to i64
  %29 = icmp slt i64 %indvars.iv.next, %28
  br i1 %29, label %21, label %.critedge.preheader, !llvm.loop !17

.critedge:                                        ; preds = %.lr.ph66, %.critedge
  %indvars.iv71 = phi i64 [ %20, %.lr.ph66 ], [ %indvars.iv.next72, %.critedge ]
  %.val56 = load ptr, ptr %19, align 8, !tbaa !13
  %30 = getelementptr inbounds %struct.Kit_Node_t_, ptr %.val56, i64 %indvars.iv71
  %31 = load i32, ptr %30, align 8
  %32 = lshr i32 %31, 1
  %33 = and i32 %32, 1073741823
  %34 = zext nneg i32 %33 to i64
  %35 = getelementptr inbounds nuw %struct.Kit_Node_t_, ptr %.val56, i64 %34, i32 2
  %36 = load ptr, ptr %35, align 8, !tbaa !15
  %37 = ptrtoint ptr %36 to i64
  %38 = trunc i64 %37 to i32
  %39 = getelementptr inbounds nuw i8, ptr %30, i64 4
  %40 = load i32, ptr %39, align 4
  %41 = lshr i32 %40, 1
  %42 = and i32 %41, 1073741823
  %43 = zext nneg i32 %42 to i64
  %44 = getelementptr inbounds nuw %struct.Kit_Node_t_, ptr %.val56, i64 %43, i32 2
  %45 = load ptr, ptr %44, align 8, !tbaa !15
  %46 = ptrtoint ptr %45 to i64
  %47 = trunc i64 %46 to i32
  %48 = and i32 %31, 1
  %sext44 = sub nsw i32 0, %48
  %49 = xor i32 %38, %sext44
  %50 = and i32 %40, 1
  %sext46 = sub nsw i32 0, %50
  %51 = xor i32 %47, %sext46
  %52 = and i32 %51, %49
  %53 = zext i32 %52 to i64
  %54 = inttoptr i64 %53 to ptr
  %55 = getelementptr inbounds nuw i8, ptr %30, i64 8
  store ptr %54, ptr %55, align 8, !tbaa !15
  %indvars.iv.next72 = add nsw i64 %indvars.iv71, 1
  %56 = load i32, ptr %16, align 8, !tbaa !11
  %57 = sext i32 %56 to i64
  %58 = icmp slt i64 %indvars.iv.next72, %57
  br i1 %58, label %.critedge, label %.critedge2, !llvm.loop !19

.critedge2:                                       ; preds = %.critedge, %.critedge.preheader
  %.039.lcssa = phi i32 [ 0, %.critedge.preheader ], [ %52, %.critedge ]
  %.val52 = load i32, ptr %7, align 8
  %59 = and i32 %.val52, 1
  %sext = sub nsw i32 0, %59
  %60 = xor i32 %.039.lcssa, %sext
  br label %61

61:                                               ; preds = %11, %.critedge2, %2
  %.038 = phi i32 [ %sext49, %2 ], [ %60, %.critedge2 ], [ %spec.select, %11 ]
  ret i32 %.038
}